; Function Attrs: mustprogress uwtable
define void @_ZN2cv4gapi7SobelXYERKNS_4GMatEiiiddiRKNS_7Scalar_IdEE(ptr dead_on_unwind noalias writable sret(%"class.std::tuple") align 8 %0, ptr nocapture noundef nonnull readonly align 8 dereferenceable(16) %1, i32 noundef %2, i32 noundef %3, i32 noundef %4, double noundef %5, double noundef %6, i32 noundef %7, ptr nocapture noundef nonnull readonly align 8 dereferenceable(32) %8) local_unnamed_addr #3 personality ptr @__gxx_personality_v0 {
  %10 = alloca %"class.cv::GMat", align 8
  %11 = alloca %"class.cv::Scalar_", align 8
  %12 = load ptr, ptr %1, align 8
  store ptr %12, ptr %10, align 8
  %13 = getelementptr inbounds i8, ptr %10, i64 8
  %14 = getelementptr inbounds i8, ptr %1, i64 8
  %15 = load ptr, ptr %14, align 8
  store ptr %15, ptr %13, align 8
  %.not.i.i.i.i = icmp eq ptr %15, null
  br i1 %.not.i.i.i.i, label %_ZN2cv4GMatC2ERKS0_.exit, label %16

16:                                               ; preds = %9
  %17 = getelementptr inbounds i8, ptr %15, i64 8
  %18 = load i8, ptr @__libc_single_threaded, align 1
  %.not.i.i.i.i.i = icmp eq i8 %18, 0
  br i1 %.not.i.i.i.i.i, label %22, label %19

19:                                               ; preds = %16
  %20 = load i32, ptr %17, align 4
  %21 = add nsw i32 %20, 1
  store i32 %21, ptr %17, align 4
  br label %_ZN2cv4GMatC2ERKS0_.exit

22:                                               ; preds = %16
  %23 = atomicrmw volatile add ptr %17, i32 1 acq_rel, align 4
  br label %_ZN2cv4GMatC2ERKS0_.exit

_ZN2cv4GMatC2ERKS0_.exit:                         ; preds = %9, %19, %22
  call void @llvm.memcpy.p0.p0.i64(ptr noundef nonnull align 8 dereferenceable(32) %11, ptr noundef nonnull align 8 dereferenceable(32) %8, i64 32, i1 false)
  invoke void @_ZN2cv12GKernelTypeMINS_4gapi7imgproc8GSobelXYESt8functionIFSt5tupleIJNS_4GMatES6_EES6_iiiddiNS_7Scalar_IdEEEEE2onES6_iiiddiS9_(ptr dead_on_unwind writable sret(%"class.std::tuple") align 8 %0, ptr noundef nonnull %10, i32 noundef %2, i32 noundef %3, i32 noundef %4, double noundef %5, double noundef %6, i32 noundef %7, ptr noundef nonnull %11)
          to label %24 unwind label %60

24:                                               ; preds = %_ZN2cv4GMatC2ERKS0_.exit
  %25 = load ptr, ptr %13, align 8
  %.not.i.i.i.i9 = icmp eq ptr %25, null
  br i1 %.not.i.i.i.i9, label %_ZN2cv4GMatD2Ev.exit, label %26

26:                                               ; preds = %24
  %27 = getelementptr inbounds i8, ptr %25, i64 8
  %28 = load atomic i64, ptr %27 acquire, align 8
  %29 = icmp eq i64 %28, 4294967297
  %30 = trunc i64 %28 to i32
  br i1 %29, label %31, label %36

31:                                               ; preds = %26
  store i32 0, ptr %27, align 8
  %32 = getelementptr inbounds i8, ptr %25, i64 12
  store i32 0, ptr %32, align 4
  %33 = load ptr, ptr %25, align 8
  %34 = getelementptr inbounds i8, ptr %33, i64 16
  %35 = load ptr, ptr %34, align 8
  call void %35(ptr noundef nonnull align 8 dereferenceable(16) %25) #18
  br label %_ZNSt16_Sp_counted_baseILN9__gnu_cxx12_Lock_policyE2EE24_M_release_last_use_coldEv.exit.sink.split.i.i.i.i.i

36:                                               ; preds = %26
  %37 = load i8, ptr @__libc_single_threaded, align 1
  %.not.i.i.i.i.i10 = icmp eq i8 %37, 0
  br i1 %.not.i.i.i.i.i10, label %40, label %38

38:                                               ; preds = %36
  %39 = add nsw i32 %30, -1
  store i32 %39, ptr %27, align 4
  br label %42

40:                                               ; preds = %36
  %41 = atomicrmw volatile add ptr %27, i32 -1 acq_rel, align 4
  br label %42

42:                                               ; preds = %40, %38
  %.0.i.i.i.i.i = phi i32 [ %30, %38 ], [ %41, %40 ]
  %43 = icmp eq i32 %.0.i.i.i.i.i, 1
  br i1 %43, label %44, label %_ZN2cv4GMatD2Ev.exit

44:                                               ; preds = %42
  %45 = load ptr, ptr %25, align 8
  %46 = getelementptr inbounds i8, ptr %45, i64 16
  %47 = load ptr, ptr %46, align 8
  call void %47(ptr noundef nonnull align 8 dereferenceable(16) %25) #18
  %48 = getelementptr inbounds i8, ptr %25, i64 12
  %49 = load i8, ptr @__libc_single_threaded, align 1
  %.not.i.i.i.i.i.i.i = icmp eq i8 %49, 0
  br i1 %.not.i.i.i.i.i.i.i, label %53, label %50

50:                                               ; preds = %44
  %51 = load i32, ptr %48, align 4
  %52 = add nsw i32 %51, -1
  store i32 %52, ptr %48, align 4
  br label %55

53:                                               ; preds = %44
  %54 = atomicrmw volatile add ptr %48, i32 -1 acq_rel, align 4
  br label %55

55:                                               ; preds = %53, %50
  %.0.i.i.i.i.i.i.i = phi i32 [ %51, %50 ], [ %54, %53 ]
  %56 = icmp eq i32 %.0.i.i.i.i.i.i.i, 1
  br i1 %56, label %_ZNSt16_Sp_counted_baseILN9__gnu_cxx12_Lock_policyE2EE24_M_release_last_use_coldEv.exit.sink.split.i.i.i.i.i, label %_ZN2cv4GMatD2Ev.exit

_ZNSt16_Sp_counted_baseILN9__gnu_cxx12_Lock_policyE2EE24_M_release_last_use_coldEv.exit.sink.split.i.i.i.i.i: ; preds = %55, %31
  %57 = load ptr, ptr %25, align 8
  %58 = getelementptr inbounds i8, ptr %57, i64 24
  %59 = load ptr, ptr %58, align 8
  call void %59(ptr noundef nonnull align 8 dereferenceable(16) %25) #18
  br label %_ZN2cv4GMatD2Ev.exit

_ZN2cv4GMatD2Ev.exit:                             ; preds = %24, %42, %55, %_ZNSt16_Sp_counted_baseILN9__gnu_cxx12_Lock_policyE2EE24_M_release_last_use_coldEv.exit.sink.split.i.i.i.i.i
  ret void

60:                                               ; preds = %_ZN2cv4GMatC2ERKS0_.exit
  %61 = landingpad { ptr, i32 }
          cleanup
  call void @_ZN2cv4GMatD2Ev(ptr noundef nonnull align 8 dereferenceable(16) %10) #18
  resume { ptr, i32 } %61
}